target datalayout = "e-m:e-p270:32:32-p271:32:32-p272:64:64-i64:64-i128:128-f80:128-n8:16:32:64-S128"
target triple = "x86_64-pc-linux-gnu"

%struct._lv_spinbox_t = type { %struct._lv_textarea_t, i32, i32, i32, i32, i16 }
%struct._lv_textarea_t = type { %struct._lv_obj_t, ptr, ptr, ptr, ptr, ptr, i32, i32, %struct.anon, i32, i32, i8 }
%struct._lv_obj_t = type { ptr, ptr, ptr, ptr, ptr, %struct.lv_area_t, i32, i16, i16 }
%struct.lv_area_t = type { i32, i32, i32, i32 }
%struct.anon = type { i32, i32, %struct.lv_area_t, i32, i8 }

@.str.1 = private unnamed_addr constant [3 x i8] c"%d\00", align 1

; Function Attrs: nounwind uwtable
define internal void @lv_spinbox_updatevalue(ptr noundef %0) #0 {
  %2 = alloca ptr, align 8
  %3 = alloca ptr, align 8
  %4 = alloca [18 x i8], align 16
  %5 = alloca ptr, align 8
  %6 = alloca i32, align 4
  %7 = alloca [14 x i8], align 1
  %8 = alloca i32, align 4
  %9 = alloca i64, align 8
  %10 = alloca i32, align 4
  %11 = alloca i32, align 4
  %12 = alloca i32, align 4
  %13 = alloca i32, align 4
  store ptr %0, ptr %2, align 8, !tbaa !3
  call void @llvm.lifetime.start.p0(i64 8, ptr %3) #4
  %14 = load ptr, ptr %2, align 8, !tbaa !3
  store ptr %14, ptr %3, align 8, !tbaa !3
  call void @llvm.lifetime.start.p0(i64 18, ptr %4) #4
  call void @llvm.memset.p0.i64(ptr align 16 %4, i8 0, i64 18, i1 false)
  call void @llvm.lifetime.start.p0(i64 8, ptr %5) #4
  %15 = getelementptr inbounds [18 x i8], ptr %4, i64 0, i64 0
  store ptr %15, ptr %5, align 8, !tbaa !3
  call void @llvm.lifetime.start.p0(i64 4, ptr %6) #4
  store i32 0, ptr %6, align 4, !tbaa !18
  %16 = load ptr, ptr %3, align 8, !tbaa !3
  %17 = getelementptr inbounds nuw %struct._lv_spinbox_t, ptr %16, i32 0, i32 3
  %18 = load i32, ptr %17, align 8, !tbaa !17
  %19 = icmp slt i32 %18, 0
  br i1 %19, label %20, label %30

20:                                               ; preds = %1
  %21 = load ptr, ptr %3, align 8, !tbaa !3
  %22 = getelementptr inbounds nuw %struct._lv_spinbox_t, ptr %21, i32 0, i32 1
  %23 = load i32, ptr %22, align 8, !tbaa !7
  %24 = icmp sge i32 %23, 0
  %25 = select i1 %24, i32 43, i32 45
  %26 = trunc i32 %25 to i8
  %27 = load ptr, ptr %5, align 8, !tbaa !3
  store i8 %26, ptr %27, align 1, !tbaa !22
  %28 = load ptr, ptr %5, align 8, !tbaa !3
  %29 = getelementptr inbounds nuw i8, ptr %28, i32 1
  store ptr %29, ptr %5, align 8, !tbaa !3
  br label %33

30:                                               ; preds = %1
  %31 = load i32, ptr %6, align 4, !tbaa !18
  %32 = add i32 %31, 1
  store i32 %32, ptr %6, align 4, !tbaa !18
  br label %33

33:                                               ; preds = %30, %20
  call void @llvm.lifetime.start.p0(i64 14, ptr %7) #4
  %34 = getelementptr inbounds [14 x i8], ptr %7, i64 0, i64 0
  %35 = load ptr, ptr %3, align 8, !tbaa !3
  %36 = getelementptr inbounds nuw %struct._lv_spinbox_t, ptr %35, i32 0, i32 1
  %37 = load i32, ptr %36, align 8, !tbaa !7
  %38 = icmp sgt i32 %37, 0
  br i1 %38, label %39, label %43

39:                                               ; preds = %33
  %40 = load ptr, ptr %3, align 8, !tbaa !3
  %41 = getelementptr inbounds nuw %struct._lv_spinbox_t, ptr %40, i32 0, i32 1
  %42 = load i32, ptr %41, align 8, !tbaa !7
  br label %48

43:                                               ; preds = %33
  %44 = load ptr, ptr %3, align 8, !tbaa !3
  %45 = getelementptr inbounds nuw %struct._lv_spinbox_t, ptr %44, i32 0, i32 1
  %46 = load i32, ptr %45, align 8, !tbaa !7
  %47 = sub nsw i32 0, %46
  br label %48

48:                                               ; preds = %43, %39
  %49 = phi i32 [ %42, %39 ], [ %47, %43 ]
  %50 = call i32 (ptr, i64, ptr, ...) @lv_snprintf(ptr noundef %34, i64 noundef 14, ptr noundef @.str.1, i32 noundef %49)
  call void @llvm.lifetime.start.p0(i64 4, ptr %8) #4
  call void @llvm.lifetime.start.p0(i64 8, ptr %9) #4
  %51 = getelementptr inbounds [14 x i8], ptr %7, i64 0, i64 0
  %52 = call i64 @lv_strlen(ptr noundef %51)
  store i64 %52, ptr %9, align 8, !tbaa !19
  call void @llvm.lifetime.start.p0(i64 4, ptr %10) #4
  %53 = load ptr, ptr %3, align 8, !tbaa !3
  %54 = getelementptr inbounds nuw %struct._lv_spinbox_t, ptr %53, i32 0, i32 5
  %55 = load i16, ptr %54, align 8
  %56 = and i16 %55, 15
  %57 = zext i16 %56 to i32
  %58 = zext i32 %57 to i64
  %59 = load i64, ptr %9, align 8, !tbaa !19
  %60 = sub i64 %58, %59
  %61 = trunc i64 %60 to i32
  store i32 %61, ptr %10, align 4, !tbaa !18
  %62 = load i32, ptr %10, align 4, !tbaa !18
  %63 = icmp ne i32 %62, 0
  br i1 %63, label %64, label %96

64:                                               ; preds = %48
  %65 = load i64, ptr %9, align 8, !tbaa !19
  %66 = trunc i64 %65 to i32
  store i32 %66, ptr %8, align 4, !tbaa !18
  br label %67

67:                                               ; preds = %80, %64
  %68 = load i32, ptr %8, align 4, !tbaa !18
  %69 = icmp sge i32 %68, 0
  br i1 %69, label %70, label %83

70:                                               ; preds = %67
  %71 = load i32, ptr %8, align 4, !tbaa !18
  %72 = sext i32 %71 to i64
  %73 = getelementptr inbounds [14 x i8], ptr %7, i64 0, i64 %72
  %74 = load i8, ptr %73, align 1, !tbaa !22
  %75 = load i32, ptr %8, align 4, !tbaa !18
  %76 = load i32, ptr %10, align 4, !tbaa !18
  %77 = add nsw i32 %75, %76
  %78 = sext i32 %77 to i64
  %79 = getelementptr inbounds [14 x i8], ptr %7, i64 0, i64 %78
  store i8 %74, ptr %79, align 1, !tbaa !22
  br label %80

80:                                               ; preds = %70
  %81 = load i32, ptr %8, align 4, !tbaa !18
  %82 = add nsw i32 %81, -1
  store i32 %82, ptr %8, align 4, !tbaa !18
  br label %67, !llvm.loop !25

83:                                               ; preds = %67
  store i32 0, ptr %8, align 4, !tbaa !18
  br label %84

84:                                               ; preds = %92, %83
  %85 = load i32, ptr %8, align 4, !tbaa !18
  %86 = load i32, ptr %10, align 4, !tbaa !18
  %87 = icmp slt i32 %85, %86
  br i1 %87, label %88, label %95

88:                                               ; preds = %84
  %89 = load i32, ptr %8, align 4, !tbaa !18
  %90 = sext i32 %89 to i64
  %91 = getelementptr inbounds [14 x i8], ptr %7, i64 0, i64 %90
  store i8 48, ptr %91, align 1, !tbaa !22
  br label %92

92:                                               ; preds = %88
  %93 = load i32, ptr %8, align 4, !tbaa !18
  %94 = add nsw i32 %93, 1
  store i32 %94, ptr %8, align 4, !tbaa !18
  br label %84, !llvm.loop !26

95:                                               ; preds = %84
  br label %96

96:                                               ; preds = %95, %48
  call void @llvm.lifetime.start.p0(i64 4, ptr %11) #4
  %97 = load ptr, ptr %3, align 8, !tbaa !3
  %98 = getelementptr inbounds nuw %struct._lv_spinbox_t, ptr %97, i32 0, i32 5
  %99 = load i16, ptr %98, align 8
  %100 = lshr i16 %99, 4
  %101 = and i16 %100, 15
  %102 = zext i16 %101 to i32
  %103 = icmp eq i32 %102, 0
  br i1 %103, label %104, label %110

104:                                              ; preds = %96
  %105 = load ptr, ptr %3, align 8, !tbaa !3
  %106 = getelementptr inbounds nuw %struct._lv_spinbox_t, ptr %105, i32 0, i32 5
  %107 = load i16, ptr %106, align 8
  %108 = and i16 %107, 15
  %109 = zext i16 %108 to i32
  br label %117

110:                                              ; preds = %96
  %111 = load ptr, ptr %3, align 8, !tbaa !3
  %112 = getelementptr inbounds nuw %struct._lv_spinbox_t, ptr %111, i32 0, i32 5
  %113 = load i16, ptr %112, align 8
  %114 = lshr i16 %113, 4
  %115 = and i16 %114, 15
  %116 = zext i16 %115 to i32
  br label %117

117:                                              ; preds = %110, %104
  %118 = phi i32 [ %109, %104 ], [ %116, %110 ]
  store i32 %118, ptr %11, align 4, !tbaa !18
  store i32 0, ptr %8, align 4, !tbaa !18
  br label %119

119:                                              ; preds = %140, %117
  %120 = load i32, ptr %8, align 4, !tbaa !18
  %121 = load i32, ptr %11, align 4, !tbaa !18
  %122 = icmp slt i32 %120, %121
  br i1 %122, label %123, label %130

123:                                              ; preds = %119
  %124 = load i32, ptr %8, align 4, !tbaa !18
  %125 = sext i32 %124 to i64
  %126 = getelementptr inbounds [14 x i8], ptr %7, i64 0, i64 %125
  %127 = load i8, ptr %126, align 1, !tbaa !22
  %128 = sext i8 %127 to i32
  %129 = icmp ne i32 %128, 0
  br label %130

130:                                              ; preds = %123, %119
  %131 = phi i1 [ false, %119 ], [ %129, %123 ]
  br i1 %131, label %132, label %143

132:                                              ; preds = %130
  %133 = load i32, ptr %8, align 4, !tbaa !18
  %134 = sext i32 %133 to i64
  %135 = getelementptr inbounds [14 x i8], ptr %7, i64 0, i64 %134
  %136 = load i8, ptr %135, align 1, !tbaa !22
  %137 = load ptr, ptr %5, align 8, !tbaa !3
  store i8 %136, ptr %137, align 1, !tbaa !22
  %138 = load ptr, ptr %5, align 8, !tbaa !3
  %139 = getelementptr inbounds nuw i8, ptr %138, i32 1
  store ptr %139, ptr %5, align 8, !tbaa !3
  br label %140

140:                                              ; preds = %132
  %141 = load i32, ptr %8, align 4, !tbaa !18
  %142 = add nsw i32 %141, 1
  store i32 %142, ptr %8, align 4, !tbaa !18
  br label %119, !llvm.loop !27

143:                                              ; preds = %130
  %144 = load ptr, ptr %3, align 8, !tbaa !3
  %145 = getelementptr inbounds nuw %struct._lv_spinbox_t, ptr %144, i32 0, i32 5
  %146 = load i16, ptr %145, align 8
  %147 = lshr i16 %146, 4
  %148 = and i16 %147, 15
  %149 = zext i16 %148 to i32
  %150 = icmp ne i32 %149, 0
  br i1 %150, label %151, label %184

151:                                              ; preds = %143
  %152 = load ptr, ptr %5, align 8, !tbaa !3
  store i8 46, ptr %152, align 1, !tbaa !22
  %153 = load ptr, ptr %5, align 8, !tbaa !3
  %154 = getelementptr inbounds nuw i8, ptr %153, i32 1
  store ptr %154, ptr %5, align 8, !tbaa !3
  br label %155

155:                                              ; preds = %180, %151
  %156 = load i32, ptr %8, align 4, !tbaa !18
  %157 = load ptr, ptr %3, align 8, !tbaa !3
  %158 = getelementptr inbounds nuw %struct._lv_spinbox_t, ptr %157, i32 0, i32 5
  %159 = load i16, ptr %158, align 8
  %160 = and i16 %159, 15
  %161 = zext i16 %160 to i32
  %162 = icmp slt i32 %156, %161
  br i1 %162, label %163, label %170

163:                                              ; preds = %155
  %164 = load i32, ptr %8, align 4, !tbaa !18
  %165 = sext i32 %164 to i64
  %166 = getelementptr inbounds [14 x i8], ptr %7, i64 0, i64 %165
  %167 = load i8, ptr %166, align 1, !tbaa !22
  %168 = sext i8 %167 to i32
  %169 = icmp ne i32 %168, 0
  br label %170

170:                                              ; preds = %163, %155
  %171 = phi i1 [ false, %155 ], [ %169, %163 ]
  br i1 %171, label %172, label %183

172:                                              ; preds = %170
  %173 = load i32, ptr %8, align 4, !tbaa !18
  %174 = sext i32 %173 to i64
  %175 = getelementptr inbounds [14 x i8], ptr %7, i64 0, i64 %174
  %176 = load i8, ptr %175, align 1, !tbaa !22
  %177 = load ptr, ptr %5, align 8, !tbaa !3
  store i8 %176, ptr %177, align 1, !tbaa !22
  %178 = load ptr, ptr %5, align 8, !tbaa !3
  %179 = getelementptr inbounds nuw i8, ptr %178, i32 1
  store ptr %179, ptr %5, align 8, !tbaa !3
  br label %180

180:                                              ; preds = %172
  %181 = load i32, ptr %8, align 4, !tbaa !18
  %182 = add nsw i32 %181, 1
  store i32 %182, ptr %8, align 4, !tbaa !18
  br label %155, !llvm.loop !28

183:                                              ; preds = %170
  br label %184

184:                                              ; preds = %183, %143
  %185 = load ptr, ptr %2, align 8, !tbaa !3
  %186 = getelementptr inbounds [18 x i8], ptr %4, i64 0, i64 0
  call void @lv_textarea_set_text(ptr noundef %185, ptr noundef %186)
  call void @llvm.lifetime.start.p0(i64 4, ptr %12) #4
  %187 = load ptr, ptr %3, align 8, !tbaa !3
  %188 = getelementptr inbounds nuw %struct._lv_spinbox_t, ptr %187, i32 0, i32 4
  %189 = load i32, ptr %188, align 4, !tbaa !15
  store i32 %189, ptr %12, align 4, !tbaa !18
  call void @llvm.lifetime.start.p0(i64 4, ptr %13) #4
  %190 = load ptr, ptr %3, align 8, !tbaa !3
  %191 = getelementptr inbounds nuw %struct._lv_spinbox_t, ptr %190, i32 0, i32 5
  %192 = load i16, ptr %191, align 8
  %193 = and i16 %192, 15
  %194 = zext i16 %193 to i32
  store i32 %194, ptr %13, align 4, !tbaa !18
  br label %195

195:                                              ; preds = %198, %184
  %196 = load i32, ptr %12, align 4, !tbaa !18
  %197 = icmp sge i32 %196, 10
  br i1 %197, label %198, label %203

198:                                              ; preds = %195
  %199 = load i32, ptr %12, align 4, !tbaa !18
  %200 = sdiv i32 %199, 10
  store i32 %200, ptr %12, align 4, !tbaa !18
  %201 = load i32, ptr %13, align 4, !tbaa !18
  %202 = add i32 %201, -1
  store i32 %202, ptr %13, align 4, !tbaa !18
  br label %195, !llvm.loop !29

203:                                              ; preds = %195
  %204 = load i32, ptr %13, align 4, !tbaa !18
  %205 = load i32, ptr %11, align 4, !tbaa !18
  %206 = icmp ugt i32 %204, %205
  br i1 %206, label %207, label %210

207:                                              ; preds = %203
  %208 = load i32, ptr %13, align 4, !tbaa !18
  %209 = add i32 %208, 1
  store i32 %209, ptr %13, align 4, !tbaa !18
  br label %210

210:                                              ; preds = %207, %203
  %211 = load i32, ptr %6, align 4, !tbaa !18
  %212 = load i32, ptr %13, align 4, !tbaa !18
  %213 = sub i32 %212, %211
  store i32 %213, ptr %13, align 4, !tbaa !18
  %214 = load ptr, ptr %2, align 8, !tbaa !3
  %215 = load i32, ptr %13, align 4, !tbaa !18
  call void @lv_textarea_set_cursor_pos(ptr noundef %214, i32 noundef %215)
  call void @llvm.lifetime.end.p0(i64 4, ptr %13) #4
  call void @llvm.lifetime.end.p0(i64 4, ptr %12) #4
  call void @llvm.lifetime.end.p0(i64 4, ptr %11) #4
  call void @llvm.lifetime.end.p0(i64 4, ptr %10) #4
  call void @llvm.lifetime.end.p0(i64 8, ptr %9) #4
  call void @llvm.lifetime.end.p0(i64 4, ptr %8) #4
  call void @llvm.lifetime.end.p0(i64 14, ptr %7) #4
  call void @llvm.lifetime.end.p0(i64 4, ptr %6) #4
  call void @llvm.lifetime.end.p0(i64 8, ptr %5) #4
  call void @llvm.lifetime.end.p0(i64 18, ptr %4) #4
  call void @llvm.lifetime.end.p0(i64 8, ptr %3) #4
  ret void
}