; Function Attrs: nounwind uwtable
define internal fastcc void @lv_spinbox_updatevalue(ptr noundef %0) unnamed_addr #0 {
  %2 = alloca [18 x i8], align 16
  %3 = alloca [14 x i8], align 1
  call void @llvm.lifetime.start.p0(i64 18, ptr nonnull %2) #7
  call void @llvm.memset.p0.i64(ptr noundef nonnull align 16 dereferenceable(18) %2, i8 0, i64 18, i1 false)
  %4 = getelementptr inbounds nuw i8, ptr %0, i64 168
  %5 = load i32, ptr %4, align 8, !tbaa !16
  %6 = icmp slt i32 %5, 0
  %7 = getelementptr inbounds nuw i8, ptr %0, i64 160
  %8 = load i32, ptr %7, align 8, !tbaa !3
  br i1 %6, label %9, label %._crit_edge102

9:                                                ; preds = %1
  %10 = icmp sgt i32 %8, -1
  %11 = select i1 %10, i8 43, i8 45
  store i8 %11, ptr %2, align 16, !tbaa !18
  %12 = getelementptr inbounds nuw i8, ptr %2, i64 1
  br label %._crit_edge102

._crit_edge102:                                   ; preds = %1, %9
  %.059.neg = phi i32 [ 0, %9 ], [ -1, %1 ]
  %.057 = phi ptr [ %12, %9 ], [ %2, %1 ]
  call void @llvm.lifetime.start.p0(i64 14, ptr nonnull %3) #7
  %13 = tail call i32 @llvm.abs.i32(i32 %8, i1 true)
  %14 = call i32 (ptr, i64, ptr, ...) @lv_snprintf(ptr noundef nonnull %3, i64 noundef 14, ptr noundef nonnull @.str.1, i32 noundef %13) #7
  %15 = call i64 @lv_strlen(ptr noundef nonnull %3) #7
  %16 = getelementptr inbounds nuw i8, ptr %0, i64 176
  %17 = load i16, ptr %16, align 8
  %18 = and i16 %17, 15
  %19 = zext nneg i16 %18 to i64
  %20 = sub i64 %19, %15
  %21 = trunc i64 %20 to i32
  %.not = icmp eq i32 %21, 0
  br i1 %.not, label %.loopexit, label %22

22:                                               ; preds = %._crit_edge102
  %23 = and i64 %15, 2147483648
  %24 = icmp eq i64 %23, 0
  br i1 %24, label %.lr.ph.preheader, label %.preheader

.lr.ph.preheader:                                 ; preds = %22
  %25 = and i64 %15, 2147483647
  %sext = shl i64 %20, 32
  %26 = ashr exact i64 %sext, 32
  br label %.lr.ph

.preheader:                                       ; preds = %.lr.ph, %22
  %27 = icmp sgt i32 %21, 0
  br i1 %27, label %.lr.ph72.preheader, label %.loopexit

.lr.ph72.preheader:                               ; preds = %.preheader
  %28 = and i64 %20, 2147483647
  call void @llvm.memset.p0.i64(ptr nonnull align 1 %3, i8 48, i64 %28, i1 false), !tbaa !18
  br label %.loopexit

.lr.ph:                                           ; preds = %.lr.ph.preheader, %.lr.ph
  %indvars.iv = phi i64 [ %25, %.lr.ph.preheader ], [ %indvars.iv.next, %.lr.ph ]
  %29 = getelementptr inbounds [14 x i8], ptr %3, i64 0, i64 %indvars.iv
  %30 = load i8, ptr %29, align 1, !tbaa !18
  %31 = add nsw i64 %indvars.iv, %26
  %32 = getelementptr inbounds [14 x i8], ptr %3, i64 0, i64 %31
  store i8 %30, ptr %32, align 1, !tbaa !18
  %indvars.iv.next = add nsw i64 %indvars.iv, -1
  %.not106 = icmp eq i64 %indvars.iv, 0
  br i1 %.not106, label %.preheader, label %.lr.ph, !llvm.loop !22

.loopexit:                                        ; preds = %.lr.ph72.preheader, %.preheader, %._crit_edge102
  %33 = lshr i16 %17, 4
  %34 = and i16 %33, 15
  %35 = icmp eq i16 %34, 0
  %.in = select i1 %35, i16 %18, i16 %34
  %36 = zext nneg i16 %.in to i32
  %.not89 = icmp eq i16 %.in, 0
  br i1 %.not89, label %.critedge, label %.lr.ph75.preheader

.lr.ph75.preheader:                               ; preds = %.loopexit
  %wide.trip.count = zext nneg i16 %.in to i64
  br label %.lr.ph75

.lr.ph75:                                         ; preds = %.lr.ph75.preheader, %39
  %indvars.iv94 = phi i64 [ 0, %.lr.ph75.preheader ], [ %indvars.iv.next95, %39 ]
  %.15874 = phi ptr [ %.057, %.lr.ph75.preheader ], [ %40, %39 ]
  %37 = getelementptr inbounds [14 x i8], ptr %3, i64 0, i64 %indvars.iv94
  %38 = load i8, ptr %37, align 1, !tbaa !18
  %.not67 = icmp eq i8 %38, 0
  br i1 %.not67, label %.critedge.loopexit.split.loop.exit103, label %39

39:                                               ; preds = %.lr.ph75
  store i8 %38, ptr %.15874, align 1, !tbaa !18
  %40 = getelementptr inbounds nuw i8, ptr %.15874, i64 1
  %indvars.iv.next95 = add nuw nsw i64 %indvars.iv94, 1
  %exitcond.not = icmp eq i64 %indvars.iv.next95, %wide.trip.count
  br i1 %exitcond.not, label %.critedge, label %.lr.ph75, !llvm.loop !23

.critedge.loopexit.split.loop.exit103:            ; preds = %.lr.ph75
  %41 = trunc nuw nsw i64 %indvars.iv94 to i32
  br label %.critedge

.critedge:                                        ; preds = %39, %.critedge.loopexit.split.loop.exit103, %.loopexit
  %.262.lcssa = phi i32 [ 0, %.loopexit ], [ %41, %.critedge.loopexit.split.loop.exit103 ], [ %36, %39 ]
  %.158.lcssa = phi ptr [ %.057, %.loopexit ], [ %.15874, %.critedge.loopexit.split.loop.exit103 ], [ %40, %39 ]
  %42 = and i16 %17, 240
  %.not68 = icmp eq i16 %42, 0
  br i1 %.not68, label %.critedge2, label %43

43:                                               ; preds = %.critedge
  store i8 46, ptr %.158.lcssa, align 1, !tbaa !18
  %44 = zext nneg i16 %18 to i32
  %45 = icmp samesign ult i32 %.262.lcssa, %44
  br i1 %45, label %.lr.ph83.preheader, label %.critedge2

.lr.ph83.preheader:                               ; preds = %43
  %46 = zext nneg i32 %.262.lcssa to i64
  %wide.trip.count100 = zext nneg i16 %18 to i64
  br label %.lr.ph83

.lr.ph83:                                         ; preds = %.lr.ph83.preheader, %49
  %indvars.iv97 = phi i64 [ %46, %.lr.ph83.preheader ], [ %indvars.iv.next98, %49 ]
  %.282.pn = phi ptr [ %.158.lcssa, %.lr.ph83.preheader ], [ %.282, %49 ]
  %47 = getelementptr inbounds [14 x i8], ptr %3, i64 0, i64 %indvars.iv97
  %48 = load i8, ptr %47, align 1, !tbaa !18
  %.not69 = icmp eq i8 %48, 0
  br i1 %.not69, label %.critedge2, label %49

49:                                               ; preds = %.lr.ph83
  %.282 = getelementptr inbounds nuw i8, ptr %.282.pn, i64 1
  store i8 %48, ptr %.282, align 1, !tbaa !18
  %indvars.iv.next98 = add nuw nsw i64 %indvars.iv97, 1
  %exitcond101.not = icmp eq i64 %indvars.iv.next98, %wide.trip.count100
  br i1 %exitcond101.not, label %.critedge2, label %.lr.ph83, !llvm.loop !24

.critedge2:                                       ; preds = %49, %.lr.ph83, %43, %.critedge
  call void @lv_textarea_set_text(ptr noundef %0, ptr noundef nonnull %2) #7
  %50 = getelementptr inbounds nuw i8, ptr %0, i64 172
  %51 = load i32, ptr %50, align 4, !tbaa !14
  %52 = load i16, ptr %16, align 8
  %53 = and i16 %52, 15
  %54 = zext nneg i16 %53 to i32
  %55 = icmp sgt i32 %51, 9
  br i1 %55, label %.lr.ph87, label %._crit_edge

.lr.ph87:                                         ; preds = %.critedge2, %.lr.ph87
  %.086 = phi i32 [ %57, %.lr.ph87 ], [ %54, %.critedge2 ]
  %.05685 = phi i32 [ %56, %.lr.ph87 ], [ %51, %.critedge2 ]
  %56 = udiv i32 %.05685, 10
  %57 = add i32 %.086, -1
  %58 = icmp samesign ugt i32 %.05685, 99
  br i1 %58, label %.lr.ph87, label %._crit_edge, !llvm.loop !25

._crit_edge:                                      ; preds = %.lr.ph87, %.critedge2
  %.0.lcssa = phi i32 [ %54, %.critedge2 ], [ %57, %.lr.ph87 ]
  %59 = icmp ugt i32 %.0.lcssa, %36
  %60 = zext i1 %59 to i32
  %spec.select = add i32 %.0.lcssa, %.059.neg
  %61 = add i32 %spec.select, %60
  call void @lv_textarea_set_cursor_pos(ptr noundef %0, i32 noundef %61) #7
  call void @llvm.lifetime.end.p0(i64 14, ptr nonnull %3) #7
  call void @llvm.lifetime.end.p0(i64 18, ptr nonnull %2) #7
  ret void
}